; Function Attrs: mustprogress nounwind uwtable
define void @_ZN5folly5CodelC2Ev(ptr noundef nonnull writeonly align 8 captures(none) dereferenceable(34) initializes((0, 34)) %0) unnamed_addr #1 align 2 {
  %2 = load i32, ptr @_ZN3fLI20FLAGS_codel_intervalE, align 4, !tbaa !7
  %3 = sext i32 %2 to i64
  %4 = load i32, ptr @_ZN3fLI24FLAGS_codel_target_delayE, align 4, !tbaa !7
  %5 = sext i32 %4 to i64
  store i64 0, ptr %0, align 8, !tbaa !11
  %6 = getelementptr inbounds nuw i8, ptr %0, i64 8
  %7 = tail call i64 @_ZNSt6chrono3_V212steady_clock3nowEv() #9
  store i64 %7, ptr %6, align 8, !tbaa !11
  %8 = getelementptr inbounds nuw i8, ptr %0, i64 16
  store i64 %5, ptr %8, align 8, !tbaa !14
  %9 = getelementptr inbounds nuw i8, ptr %0, i64 24
  store i64 %3, ptr %9, align 8, !tbaa !14
  %10 = getelementptr inbounds nuw i8, ptr %0, i64 32
  store i8 1, ptr %10, align 8, !tbaa !15
  %11 = getelementptr inbounds nuw i8, ptr %0, i64 33
  store i8 0, ptr %11, align 1, !tbaa !15
  ret void
}